target datalayout = "e-m:e-p270:32:32-p271:32:32-p272:64:64-i64:64-i128:128-f80:128-n8:16:32:64-S128"
target triple = "x86_64-pc-linux-gnu"

@.str = private unnamed_addr constant [2 x i8] c"[\00", align 1
@.str.1 = private unnamed_addr constant [2 x i8] c"]\00", align 1
@.str.2 = private unnamed_addr constant [2 x i8] c"(\00", align 1
@.str.3 = private unnamed_addr constant [2 x i8] c")\00", align 1
@.str.4 = private unnamed_addr constant [2 x i8] c"{\00", align 1
@.str.5 = private unnamed_addr constant [2 x i8] c"}\00", align 1
@.str.6 = private unnamed_addr constant [2 x i8] c".\00", align 1
@.str.7 = private unnamed_addr constant [4 x i8] c"...\00", align 1
@.str.8 = private unnamed_addr constant [2 x i8] c"&\00", align 1
@.str.9 = private unnamed_addr constant [3 x i8] c"&&\00", align 1
@.str.10 = private unnamed_addr constant [3 x i8] c"&=\00", align 1
@.str.11 = private unnamed_addr constant [2 x i8] c"*\00", align 1
@.str.12 = private unnamed_addr constant [3 x i8] c"*=\00", align 1
@.str.13 = private unnamed_addr constant [2 x i8] c"+\00", align 1
@.str.14 = private unnamed_addr constant [3 x i8] c"++\00", align 1
@.str.15 = private unnamed_addr constant [3 x i8] c"+=\00", align 1
@.str.16 = private unnamed_addr constant [2 x i8] c"-\00", align 1
@.str.17 = private unnamed_addr constant [3 x i8] c"->\00", align 1
@.str.18 = private unnamed_addr constant [3 x i8] c"--\00", align 1
@.str.19 = private unnamed_addr constant [3 x i8] c"-=\00", align 1
@.str.20 = private unnamed_addr constant [2 x i8] c"~\00", align 1
@.str.21 = private unnamed_addr constant [2 x i8] c"!\00", align 1
@.str.22 = private unnamed_addr constant [3 x i8] c"!=\00", align 1
@.str.23 = private unnamed_addr constant [2 x i8] c"/\00", align 1
@.str.24 = private unnamed_addr constant [3 x i8] c"/=\00", align 1
@.str.25 = private unnamed_addr constant [2 x i8] c"%\00", align 1
@.str.26 = private unnamed_addr constant [3 x i8] c"%=\00", align 1
@.str.27 = private unnamed_addr constant [2 x i8] c"<\00", align 1
@.str.28 = private unnamed_addr constant [3 x i8] c"<<\00", align 1
@.str.29 = private unnamed_addr constant [3 x i8] c"<=\00", align 1
@.str.30 = private unnamed_addr constant [4 x i8] c"<<=\00", align 1
@.str.31 = private unnamed_addr constant [4 x i8] c"<=>\00", align 1
@.str.32 = private unnamed_addr constant [2 x i8] c">\00", align 1
@.str.33 = private unnamed_addr constant [3 x i8] c">>\00", align 1
@.str.34 = private unnamed_addr constant [3 x i8] c">=\00", align 1
@.str.35 = private unnamed_addr constant [4 x i8] c">>=\00", align 1
@.str.36 = private unnamed_addr constant [2 x i8] c"^\00", align 1
@.str.37 = private unnamed_addr constant [3 x i8] c"^=\00", align 1
@.str.38 = private unnamed_addr constant [2 x i8] c"|\00", align 1
@.str.39 = private unnamed_addr constant [3 x i8] c"||\00", align 1
@.str.40 = private unnamed_addr constant [3 x i8] c"|=\00", align 1
@.str.41 = private unnamed_addr constant [2 x i8] c"?\00", align 1
@.str.42 = private unnamed_addr constant [2 x i8] c":\00", align 1
@.str.43 = private unnamed_addr constant [2 x i8] c";\00", align 1
@.str.44 = private unnamed_addr constant [2 x i8] c"=\00", align 1
@.str.45 = private unnamed_addr constant [3 x i8] c"==\00", align 1
@.str.46 = private unnamed_addr constant [2 x i8] c",\00", align 1
@.str.47 = private unnamed_addr constant [2 x i8] c"#\00", align 1
@.str.48 = private unnamed_addr constant [3 x i8] c"##\00", align 1
@.str.49 = private unnamed_addr constant [3 x i8] c"#@\00", align 1
@.str.50 = private unnamed_addr constant [3 x i8] c".*\00", align 1
@.str.51 = private unnamed_addr constant [4 x i8] c"->*\00", align 1
@.str.52 = private unnamed_addr constant [3 x i8] c"::\00", align 1
@.str.53 = private unnamed_addr constant [2 x i8] c"@\00", align 1
@.str.54 = private unnamed_addr constant [4 x i8] c"<<<\00", align 1
@.str.55 = private unnamed_addr constant [4 x i8] c">>>\00", align 1
@.str.56 = private unnamed_addr constant [3 x i8] c"^^\00", align 1

; Function Attrs: mustprogress nounwind willreturn memory(none) uwtable
define dso_local noundef ptr @_ZN5clang3tok21getPunctuatorSpellingENS0_9TokenKindE(i16 noundef zeroext %0) #0 {
  %2 = alloca ptr, align 8
  %3 = alloca i16, align 2
  store i16 %0, ptr %3, align 2
  %4 = load i16, ptr %3, align 2
  %5 = zext i16 %4 to i32
  switch i32 %5, label %63 [
    i32 20, label %6
    i32 21, label %7
    i32 22, label %8
    i32 23, label %9
    i32 24, label %10
    i32 25, label %11
    i32 26, label %12
    i32 27, label %13
    i32 28, label %14
    i32 29, label %15
    i32 30, label %16
    i32 31, label %17
    i32 32, label %18
    i32 33, label %19
    i32 34, label %20
    i32 35, label %21
    i32 36, label %22
    i32 37, label %23
    i32 38, label %24
    i32 39, label %25
    i32 40, label %26
    i32 41, label %27
    i32 42, label %28
    i32 43, label %29
    i32 44, label %30
    i32 45, label %31
    i32 46, label %32
    i32 47, label %33
    i32 48, label %34
    i32 49, label %35
    i32 50, label %36
    i32 51, label %37
    i32 52, label %38
    i32 53, label %39
    i32 54, label %40
    i32 55, label %41
    i32 56, label %42
    i32 57, label %43
    i32 58, label %44
    i32 59, label %45
    i32 60, label %46
    i32 61, label %47
    i32 62, label %48
    i32 63, label %49
    i32 64, label %50
    i32 65, label %51
    i32 66, label %52
    i32 67, label %53
    i32 68, label %54
    i32 69, label %55
    i32 70, label %56
    i32 71, label %57
    i32 72, label %58
    i32 73, label %59
    i32 74, label %60
    i32 75, label %61
    i32 76, label %62
  ]

6:                                                ; preds = %1
  store ptr @.str, ptr %2, align 8
  br label %65

7:                                                ; preds = %1
  store ptr @.str.1, ptr %2, align 8
  br label %65

8:                                                ; preds = %1
  store ptr @.str.2, ptr %2, align 8
  br label %65

9:                                                ; preds = %1
  store ptr @.str.3, ptr %2, align 8
  br label %65

10:                                               ; preds = %1
  store ptr @.str.4, ptr %2, align 8
  br label %65

11:                                               ; preds = %1
  store ptr @.str.5, ptr %2, align 8
  br label %65

12:                                               ; preds = %1
  store ptr @.str.6, ptr %2, align 8
  br label %65

13:                                               ; preds = %1
  store ptr @.str.7, ptr %2, align 8
  br label %65

14:                                               ; preds = %1
  store ptr @.str.8, ptr %2, align 8
  br label %65

15:                                               ; preds = %1
  store ptr @.str.9, ptr %2, align 8
  br label %65

16:                                               ; preds = %1
  store ptr @.str.10, ptr %2, align 8
  br label %65

17:                                               ; preds = %1
  store ptr @.str.11, ptr %2, align 8
  br label %65

18:                                               ; preds = %1
  store ptr @.str.12, ptr %2, align 8
  br label %65

19:                                               ; preds = %1
  store ptr @.str.13, ptr %2, align 8
  br label %65

20:                                               ; preds = %1
  store ptr @.str.14, ptr %2, align 8
  br label %65

21:                                               ; preds = %1
  store ptr @.str.15, ptr %2, align 8
  br label %65

22:                                               ; preds = %1
  store ptr @.str.16, ptr %2, align 8
  br label %65

23:                                               ; preds = %1
  store ptr @.str.17, ptr %2, align 8
  br label %65

24:                                               ; preds = %1
  store ptr @.str.18, ptr %2, align 8
  br label %65

25:                                               ; preds = %1
  store ptr @.str.19, ptr %2, align 8
  br label %65

26:                                               ; preds = %1
  store ptr @.str.20, ptr %2, align 8
  br label %65

27:                                               ; preds = %1
  store ptr @.str.21, ptr %2, align 8
  br label %65

28:                                               ; preds = %1
  store ptr @.str.22, ptr %2, align 8
  br label %65

29:                                               ; preds = %1
  store ptr @.str.23, ptr %2, align 8
  br label %65

30:                                               ; preds = %1
  store ptr @.str.24, ptr %2, align 8
  br label %65

31:                                               ; preds = %1
  store ptr @.str.25, ptr %2, align 8
  br label %65

32:                                               ; preds = %1
  store ptr @.str.26, ptr %2, align 8
  br label %65

33:                                               ; preds = %1
  store ptr @.str.27, ptr %2, align 8
  br label %65

34:                                               ; preds = %1
  store ptr @.str.28, ptr %2, align 8
  br label %65

35:                                               ; preds = %1
  store ptr @.str.29, ptr %2, align 8
  br label %65

36:                                               ; preds = %1
  store ptr @.str.30, ptr %2, align 8
  br label %65

37:                                               ; preds = %1
  store ptr @.str.31, ptr %2, align 8
  br label %65

38:                                               ; preds = %1
  store ptr @.str.32, ptr %2, align 8
  br label %65

39:                                               ; preds = %1
  store ptr @.str.33, ptr %2, align 8
  br label %65

40:                                               ; preds = %1
  store ptr @.str.34, ptr %2, align 8
  br label %65

41:                                               ; preds = %1
  store ptr @.str.35, ptr %2, align 8
  br label %65

42:                                               ; preds = %1
  store ptr @.str.36, ptr %2, align 8
  br label %65

43:                                               ; preds = %1
  store ptr @.str.37, ptr %2, align 8
  br label %65

44:                                               ; preds = %1
  store ptr @.str.38, ptr %2, align 8
  br label %65

45:                                               ; preds = %1
  store ptr @.str.39, ptr %2, align 8
  br label %65

46:                                               ; preds = %1
  store ptr @.str.40, ptr %2, align 8
  br label %65

47:                                               ; preds = %1
  store ptr @.str.41, ptr %2, align 8
  br label %65

48:                                               ; preds = %1
  store ptr @.str.42, ptr %2, align 8
  br label %65

49:                                               ; preds = %1
  store ptr @.str.43, ptr %2, align 8
  br label %65

50:                                               ; preds = %1
  store ptr @.str.44, ptr %2, align 8
  br label %65

51:                                               ; preds = %1
  store ptr @.str.45, ptr %2, align 8
  br label %65

52:                                               ; preds = %1
  store ptr @.str.46, ptr %2, align 8
  br label %65

53:                                               ; preds = %1
  store ptr @.str.47, ptr %2, align 8
  br label %65

54:                                               ; preds = %1
  store ptr @.str.48, ptr %2, align 8
  br label %65

55:                                               ; preds = %1
  store ptr @.str.49, ptr %2, align 8
  br label %65

56:                                               ; preds = %1
  store ptr @.str.50, ptr %2, align 8
  br label %65

57:                                               ; preds = %1
  store ptr @.str.51, ptr %2, align 8
  br label %65

58:                                               ; preds = %1
  store ptr @.str.52, ptr %2, align 8
  br label %65

59:                                               ; preds = %1
  store ptr @.str.53, ptr %2, align 8
  br label %65

60:                                               ; preds = %1
  store ptr @.str.54, ptr %2, align 8
  br label %65

61:                                               ; preds = %1
  store ptr @.str.55, ptr %2, align 8
  br label %65

62:                                               ; preds = %1
  store ptr @.str.56, ptr %2, align 8
  br label %65

63:                                               ; preds = %1
  br label %64

64:                                               ; preds = %63
  store ptr null, ptr %2, align 8
  br label %65

65:                                               ; preds = %64, %62, %61, %60, %59, %58, %57, %56, %55, %54, %53, %52, %51, %50, %49, %48, %47, %46, %45, %44, %43, %42, %41, %40, %39, %38, %37, %36, %35, %34, %33, %32, %31, %30, %29, %28, %27, %26, %25, %24, %23, %22, %21, %20, %19, %18, %17, %16, %15, %14, %13, %12, %11, %10, %9, %8, %7, %6
  %66 = load ptr, ptr %2, align 8
  ret ptr %66
}