; Function Attrs: mustprogress nofree norecurse nosync nounwind willreturn memory(none) uwtable
define dso_local noundef ptr @_ZN5clang3tok21getPunctuatorSpellingENS0_9TokenKindE(i16 noundef zeroext %0) local_unnamed_addr #0 {
  %switch.tableidx = add i16 %0, -20
  %2 = icmp ult i16 %switch.tableidx, 57
  br i1 %2, label %switch.lookup, label %4

switch.lookup:                                    ; preds = %1
  %3 = zext nneg i16 %switch.tableidx to i64
  %switch.gep = getelementptr inbounds [57 x ptr], ptr @switch.table._ZN5clang3tok21getPunctuatorSpellingENS0_9TokenKindE, i64 0, i64 %3
  %switch.load = load ptr, ptr %switch.gep, align 8
  br label %4

4:                                                ; preds = %1, %switch.lookup
  %.0 = phi ptr [ %switch.load, %switch.lookup ], [ null, %1 ]
  ret ptr %.0
}